target datalayout = "e-m:e-p270:32:32-p271:32:32-p272:64:64-i64:64-i128:128-f80:128-n8:16:32:64-S128"
target triple = "x86_64-pc-linux-gnu"

%struct.AVChannelLayout = type { i32, i32, %union.anon.1, ptr }
%union.anon.1 = type { i64 }
%struct.AVFilterContext = type { ptr, ptr, ptr, ptr, ptr, i32, ptr, ptr, i32, ptr, ptr, i32, i32, ptr, ptr, ptr, ptr, i32, ptr, i32, i32 }
%struct.HaasContext = type { ptr, i32, double, double, i32, i32, i32, double, double, double, double, double, double, double, ptr, i64, i32, [2 x i32], [2 x double], [2 x double], double, double }
%struct.AVFilterLink = type { ptr, ptr, ptr, ptr, i32, i32, i32, i32, %struct.AVRational, i32, i32, i32, %struct.AVChannelLayout, %struct.AVRational, ptr, i32, %struct.AVFilterFormatsConfig, %struct.AVFilterFormatsConfig }
%struct.AVRational = type { i32, i32 }
%struct.AVFilterFormatsConfig = type { ptr, ptr, ptr, ptr, ptr }
%struct.AVFrame = type { [8 x ptr], [8 x i32], ptr, i32, i32, i32, i32, i32, %struct.AVRational, i64, i64, %struct.AVRational, i32, ptr, i32, i32, [8 x ptr], ptr, i32, ptr, i32, i32, i32, i32, i32, i32, i32, i64, ptr, i32, ptr, ptr, i64, i64, i64, i64, ptr, %struct.AVChannelLayout, i64 }

; Function Attrs: nounwind uwtable
define internal i32 @filter_frame(ptr noundef %0, ptr noundef %1) #1 {
  %3 = alloca i32, align 4
  %4 = alloca ptr, align 8
  %5 = alloca ptr, align 8
  %6 = alloca ptr, align 8
  %7 = alloca ptr, align 8
  %8 = alloca ptr, align 8
  %9 = alloca ptr, align 8
  %10 = alloca double, align 8
  %11 = alloca double, align 8
  %12 = alloca i32, align 4
  %13 = alloca ptr, align 8
  %14 = alloca ptr, align 8
  %15 = alloca ptr, align 8
  %16 = alloca i32, align 4
  %17 = alloca i32, align 4
  %18 = alloca double, align 8
  %19 = alloca [2 x double], align 16
  %20 = alloca double, align 8
  %21 = alloca double, align 8
  %22 = alloca i32, align 4
  %23 = alloca i32, align 4
  store ptr %0, ptr %4, align 8, !tbaa !31
  store ptr %1, ptr %5, align 8, !tbaa !33
  call void @llvm.lifetime.start.p0(i64 8, ptr %6) #5
  %24 = load ptr, ptr %4, align 8, !tbaa !31
  %25 = getelementptr inbounds nuw %struct.AVFilterLink, ptr %24, i32 0, i32 2
  %26 = load ptr, ptr %25, align 8, !tbaa !35
  store ptr %26, ptr %6, align 8, !tbaa !4
  call void @llvm.lifetime.start.p0(i64 8, ptr %7) #5
  %27 = load ptr, ptr %6, align 8, !tbaa !4
  %28 = getelementptr inbounds nuw %struct.AVFilterContext, ptr %27, i32 0, i32 7
  %29 = load ptr, ptr %28, align 8, !tbaa !43
  %30 = getelementptr inbounds ptr, ptr %29, i64 0
  %31 = load ptr, ptr %30, align 8, !tbaa !31
  store ptr %31, ptr %7, align 8, !tbaa !31
  call void @llvm.lifetime.start.p0(i64 8, ptr %8) #5
  %32 = load ptr, ptr %6, align 8, !tbaa !4
  %33 = getelementptr inbounds nuw %struct.AVFilterContext, ptr %32, i32 0, i32 9
  %34 = load ptr, ptr %33, align 8, !tbaa !9
  store ptr %34, ptr %8, align 8, !tbaa !22
  call void @llvm.lifetime.start.p0(i64 8, ptr %9) #5
  %35 = load ptr, ptr %5, align 8, !tbaa !33
  %36 = getelementptr inbounds nuw %struct.AVFrame, ptr %35, i32 0, i32 0
  %37 = getelementptr inbounds [8 x ptr], ptr %36, i64 0, i64 0
  %38 = load ptr, ptr %37, align 8, !tbaa !44
  store ptr %38, ptr %9, align 8, !tbaa !45
  call void @llvm.lifetime.start.p0(i64 8, ptr %10) #5
  %39 = load ptr, ptr %8, align 8, !tbaa !22
  %40 = getelementptr inbounds nuw %struct.HaasContext, ptr %39, i32 0, i32 12
  %41 = load double, ptr %40, align 8, !tbaa !46
  store double %41, ptr %10, align 8, !tbaa !47
  call void @llvm.lifetime.start.p0(i64 8, ptr %11) #5
  %42 = load ptr, ptr %8, align 8, !tbaa !22
  %43 = getelementptr inbounds nuw %struct.HaasContext, ptr %42, i32 0, i32 13
  %44 = load double, ptr %43, align 8, !tbaa !48
  store double %44, ptr %11, align 8, !tbaa !47
  call void @llvm.lifetime.start.p0(i64 4, ptr %12) #5
  %45 = load ptr, ptr %8, align 8, !tbaa !22
  %46 = getelementptr inbounds nuw %struct.HaasContext, ptr %45, i32 0, i32 15
  %47 = load i64, ptr %46, align 8, !tbaa !24
  %48 = sub i64 %47, 1
  %49 = trunc i64 %48 to i32
  store i32 %49, ptr %12, align 4, !tbaa !30
  call void @llvm.lifetime.start.p0(i64 8, ptr %13) #5
  %50 = load ptr, ptr %8, align 8, !tbaa !22
  %51 = getelementptr inbounds nuw %struct.HaasContext, ptr %50, i32 0, i32 14
  %52 = load ptr, ptr %51, align 8, !tbaa !49
  store ptr %52, ptr %13, align 8, !tbaa !45
  call void @llvm.lifetime.start.p0(i64 8, ptr %14) #5
  call void @llvm.lifetime.start.p0(i64 8, ptr %15) #5
  call void @llvm.lifetime.start.p0(i64 4, ptr %16) #5
  %53 = load ptr, ptr %5, align 8, !tbaa !33
  %54 = call i32 @av_frame_is_writable(ptr noundef %53)
  %55 = icmp ne i32 %54, 0
  br i1 %55, label %56, label %58

56:                                               ; preds = %2
  %57 = load ptr, ptr %5, align 8, !tbaa !33
  store ptr %57, ptr %14, align 8, !tbaa !33
  br label %71

58:                                               ; preds = %2
  %59 = load ptr, ptr %7, align 8, !tbaa !31
  %60 = load ptr, ptr %5, align 8, !tbaa !33
  %61 = getelementptr inbounds nuw %struct.AVFrame, ptr %60, i32 0, i32 5
  %62 = load i32, ptr %61, align 8, !tbaa !50
  %63 = call ptr @ff_get_audio_buffer(ptr noundef %59, i32 noundef %62)
  store ptr %63, ptr %14, align 8, !tbaa !33
  %64 = load ptr, ptr %14, align 8, !tbaa !33
  %65 = icmp ne ptr %64, null
  br i1 %65, label %67, label %66

66:                                               ; preds = %58
  call void @av_frame_free(ptr noundef %5)
  store i32 -12, ptr %3, align 4
  store i32 1, ptr %17, align 4
  br label %255

67:                                               ; preds = %58
  %68 = load ptr, ptr %14, align 8, !tbaa !33
  %69 = load ptr, ptr %5, align 8, !tbaa !33
  %70 = call i32 @av_frame_copy_props(ptr noundef %68, ptr noundef %69)
  br label %71

71:                                               ; preds = %67, %56
  %72 = load ptr, ptr %14, align 8, !tbaa !33
  %73 = getelementptr inbounds nuw %struct.AVFrame, ptr %72, i32 0, i32 0
  %74 = getelementptr inbounds [8 x ptr], ptr %73, i64 0, i64 0
  %75 = load ptr, ptr %74, align 8, !tbaa !44
  store ptr %75, ptr %15, align 8, !tbaa !45
  store i32 0, ptr %16, align 4, !tbaa !30
  br label %76

76:                                               ; preds = %239, %71
  %77 = load i32, ptr %16, align 4, !tbaa !30
  %78 = load ptr, ptr %5, align 8, !tbaa !33
  %79 = getelementptr inbounds nuw %struct.AVFrame, ptr %78, i32 0, i32 5
  %80 = load i32, ptr %79, align 8, !tbaa !50
  %81 = icmp slt i32 %77, %80
  br i1 %81, label %82, label %246

82:                                               ; preds = %76
  call void @llvm.lifetime.start.p0(i64 8, ptr %18) #5
  call void @llvm.lifetime.start.p0(i64 16, ptr %19) #5
  call void @llvm.lifetime.start.p0(i64 8, ptr %20) #5
  call void @llvm.lifetime.start.p0(i64 8, ptr %21) #5
  call void @llvm.lifetime.start.p0(i64 4, ptr %22) #5
  call void @llvm.lifetime.start.p0(i64 4, ptr %23) #5
  %83 = load ptr, ptr %8, align 8, !tbaa !22
  %84 = getelementptr inbounds nuw %struct.HaasContext, ptr %83, i32 0, i32 1
  %85 = load i32, ptr %84, align 8, !tbaa !55
  switch i32 %85, label %112 [
    i32 0, label %86
    i32 1, label %90
    i32 2, label %94
    i32 3, label %103
  ]

86:                                               ; preds = %82
  %87 = load ptr, ptr %9, align 8, !tbaa !45
  %88 = getelementptr inbounds double, ptr %87, i64 0
  %89 = load double, ptr %88, align 8, !tbaa !47
  store double %89, ptr %18, align 8, !tbaa !47
  br label %112

90:                                               ; preds = %82
  %91 = load ptr, ptr %9, align 8, !tbaa !45
  %92 = getelementptr inbounds double, ptr %91, i64 1
  %93 = load double, ptr %92, align 8, !tbaa !47
  store double %93, ptr %18, align 8, !tbaa !47
  br label %112

94:                                               ; preds = %82
  %95 = load ptr, ptr %9, align 8, !tbaa !45
  %96 = getelementptr inbounds double, ptr %95, i64 0
  %97 = load double, ptr %96, align 8, !tbaa !47
  %98 = load ptr, ptr %9, align 8, !tbaa !45
  %99 = getelementptr inbounds double, ptr %98, i64 1
  %100 = load double, ptr %99, align 8, !tbaa !47
  %101 = fadd nsz double %97, %100
  %102 = fmul nsz double %101, 5.000000e-01
  store double %102, ptr %18, align 8, !tbaa !47
  br label %112

103:                                              ; preds = %82
  %104 = load ptr, ptr %9, align 8, !tbaa !45
  %105 = getelementptr inbounds double, ptr %104, i64 0
  %106 = load double, ptr %105, align 8, !tbaa !47
  %107 = load ptr, ptr %9, align 8, !tbaa !45
  %108 = getelementptr inbounds double, ptr %107, i64 1
  %109 = load double, ptr %108, align 8, !tbaa !47
  %110 = fsub nsz double %106, %109
  %111 = fmul nsz double %110, 5.000000e-01
  store double %111, ptr %18, align 8, !tbaa !47
  br label %112

112:                                              ; preds = %82, %103, %94, %90, %86
  %113 = load double, ptr %10, align 8, !tbaa !47
  %114 = load double, ptr %18, align 8, !tbaa !47
  %115 = fmul nsz double %114, %113
  store double %115, ptr %18, align 8, !tbaa !47
  %116 = load double, ptr %18, align 8, !tbaa !47
  %117 = load ptr, ptr %13, align 8, !tbaa !45
  %118 = load ptr, ptr %8, align 8, !tbaa !22
  %119 = getelementptr inbounds nuw %struct.HaasContext, ptr %118, i32 0, i32 16
  %120 = load i32, ptr %119, align 8, !tbaa !56
  %121 = zext i32 %120 to i64
  %122 = getelementptr inbounds nuw double, ptr %117, i64 %121
  store double %116, ptr %122, align 8, !tbaa !47
  %123 = load ptr, ptr %8, align 8, !tbaa !22
  %124 = getelementptr inbounds nuw %struct.HaasContext, ptr %123, i32 0, i32 16
  %125 = load i32, ptr %124, align 8, !tbaa !56
  %126 = zext i32 %125 to i64
  %127 = load ptr, ptr %8, align 8, !tbaa !22
  %128 = getelementptr inbounds nuw %struct.HaasContext, ptr %127, i32 0, i32 15
  %129 = load i64, ptr %128, align 8, !tbaa !24
  %130 = add i64 %126, %129
  %131 = load ptr, ptr %8, align 8, !tbaa !22
  %132 = getelementptr inbounds nuw %struct.HaasContext, ptr %131, i32 0, i32 17
  %133 = getelementptr inbounds [2 x i32], ptr %132, i64 0, i64 0
  %134 = load i32, ptr %133, align 4, !tbaa !30
  %135 = zext i32 %134 to i64
  %136 = sub i64 %130, %135
  %137 = load i32, ptr %12, align 4, !tbaa !30
  %138 = zext i32 %137 to i64
  %139 = and i64 %136, %138
  %140 = trunc i64 %139 to i32
  store i32 %140, ptr %22, align 4, !tbaa !30
  %141 = load ptr, ptr %8, align 8, !tbaa !22
  %142 = getelementptr inbounds nuw %struct.HaasContext, ptr %141, i32 0, i32 16
  %143 = load i32, ptr %142, align 8, !tbaa !56
  %144 = zext i32 %143 to i64
  %145 = load ptr, ptr %8, align 8, !tbaa !22
  %146 = getelementptr inbounds nuw %struct.HaasContext, ptr %145, i32 0, i32 15
  %147 = load i64, ptr %146, align 8, !tbaa !24
  %148 = add i64 %144, %147
  %149 = load ptr, ptr %8, align 8, !tbaa !22
  %150 = getelementptr inbounds nuw %struct.HaasContext, ptr %149, i32 0, i32 17
  %151 = getelementptr inbounds [2 x i32], ptr %150, i64 0, i64 1
  %152 = load i32, ptr %151, align 4, !tbaa !30
  %153 = zext i32 %152 to i64
  %154 = sub i64 %148, %153
  %155 = load i32, ptr %12, align 4, !tbaa !30
  %156 = zext i32 %155 to i64
  %157 = and i64 %154, %156
  %158 = trunc i64 %157 to i32
  store i32 %158, ptr %23, align 4, !tbaa !30
  %159 = load ptr, ptr %8, align 8, !tbaa !22
  %160 = getelementptr inbounds nuw %struct.HaasContext, ptr %159, i32 0, i32 6
  %161 = load i32, ptr %160, align 8, !tbaa !57
  %162 = icmp ne i32 %161, 0
  br i1 %162, label %163, label %166

163:                                              ; preds = %112
  %164 = load double, ptr %18, align 8, !tbaa !47
  %165 = fneg nsz double %164
  store double %165, ptr %18, align 8, !tbaa !47
  br label %166

166:                                              ; preds = %163, %112
  %167 = load ptr, ptr %13, align 8, !tbaa !45
  %168 = load i32, ptr %22, align 4, !tbaa !30
  %169 = zext i32 %168 to i64
  %170 = getelementptr inbounds nuw double, ptr %167, i64 %169
  %171 = load double, ptr %170, align 8, !tbaa !47
  %172 = load ptr, ptr %8, align 8, !tbaa !22
  %173 = getelementptr inbounds nuw %struct.HaasContext, ptr %172, i32 0, i32 7
  %174 = load double, ptr %173, align 8, !tbaa !58
  %175 = fmul nsz double %171, %174
  %176 = getelementptr inbounds [2 x double], ptr %19, i64 0, i64 0
  store double %175, ptr %176, align 16, !tbaa !47
  %177 = load ptr, ptr %13, align 8, !tbaa !45
  %178 = load i32, ptr %23, align 4, !tbaa !30
  %179 = zext i32 %178 to i64
  %180 = getelementptr inbounds nuw double, ptr %177, i64 %179
  %181 = load double, ptr %180, align 8, !tbaa !47
  %182 = load ptr, ptr %8, align 8, !tbaa !22
  %183 = getelementptr inbounds nuw %struct.HaasContext, ptr %182, i32 0, i32 7
  %184 = load double, ptr %183, align 8, !tbaa !58
  %185 = fmul nsz double %181, %184
  %186 = getelementptr inbounds [2 x double], ptr %19, i64 0, i64 1
  store double %185, ptr %186, align 8, !tbaa !47
  %187 = getelementptr inbounds [2 x double], ptr %19, i64 0, i64 0
  %188 = load double, ptr %187, align 16, !tbaa !47
  %189 = load ptr, ptr %8, align 8, !tbaa !22
  %190 = getelementptr inbounds nuw %struct.HaasContext, ptr %189, i32 0, i32 18
  %191 = getelementptr inbounds [2 x double], ptr %190, i64 0, i64 0
  %192 = load double, ptr %191, align 8, !tbaa !47
  %193 = getelementptr inbounds [2 x double], ptr %19, i64 0, i64 1
  %194 = load double, ptr %193, align 8, !tbaa !47
  %195 = load ptr, ptr %8, align 8, !tbaa !22
  %196 = getelementptr inbounds nuw %struct.HaasContext, ptr %195, i32 0, i32 18
  %197 = getelementptr inbounds [2 x double], ptr %196, i64 0, i64 1
  %198 = load double, ptr %197, align 8, !tbaa !47
  %199 = fmul nsz double %194, %198
  %200 = fneg nsz double %199
  %201 = call nsz double @llvm.fmuladd.f64(double %188, double %192, double %200)
  store double %201, ptr %20, align 8, !tbaa !47
  %202 = getelementptr inbounds [2 x double], ptr %19, i64 0, i64 1
  %203 = load double, ptr %202, align 8, !tbaa !47
  %204 = load ptr, ptr %8, align 8, !tbaa !22
  %205 = getelementptr inbounds nuw %struct.HaasContext, ptr %204, i32 0, i32 19
  %206 = getelementptr inbounds [2 x double], ptr %205, i64 0, i64 1
  %207 = load double, ptr %206, align 8, !tbaa !47
  %208 = getelementptr inbounds [2 x double], ptr %19, i64 0, i64 0
  %209 = load double, ptr %208, align 16, !tbaa !47
  %210 = load ptr, ptr %8, align 8, !tbaa !22
  %211 = getelementptr inbounds nuw %struct.HaasContext, ptr %210, i32 0, i32 19
  %212 = getelementptr inbounds [2 x double], ptr %211, i64 0, i64 0
  %213 = load double, ptr %212, align 8, !tbaa !47
  %214 = fmul nsz double %209, %213
  %215 = fneg nsz double %214
  %216 = call nsz double @llvm.fmuladd.f64(double %203, double %207, double %215)
  store double %216, ptr %21, align 8, !tbaa !47
  %217 = load double, ptr %18, align 8, !tbaa !47
  %218 = load double, ptr %20, align 8, !tbaa !47
  %219 = fadd nsz double %217, %218
  %220 = load double, ptr %11, align 8, !tbaa !47
  %221 = fmul nsz double %219, %220
  %222 = load ptr, ptr %15, align 8, !tbaa !45
  %223 = getelementptr inbounds double, ptr %222, i64 0
  store double %221, ptr %223, align 8, !tbaa !47
  %224 = load double, ptr %18, align 8, !tbaa !47
  %225 = load double, ptr %21, align 8, !tbaa !47
  %226 = fadd nsz double %224, %225
  %227 = load double, ptr %11, align 8, !tbaa !47
  %228 = fmul nsz double %226, %227
  %229 = load ptr, ptr %15, align 8, !tbaa !45
  %230 = getelementptr inbounds double, ptr %229, i64 1
  store double %228, ptr %230, align 8, !tbaa !47
  %231 = load ptr, ptr %8, align 8, !tbaa !22
  %232 = getelementptr inbounds nuw %struct.HaasContext, ptr %231, i32 0, i32 16
  %233 = load i32, ptr %232, align 8, !tbaa !56
  %234 = add i32 %233, 1
  %235 = load i32, ptr %12, align 4, !tbaa !30
  %236 = and i32 %234, %235
  %237 = load ptr, ptr %8, align 8, !tbaa !22
  %238 = getelementptr inbounds nuw %struct.HaasContext, ptr %237, i32 0, i32 16
  store i32 %236, ptr %238, align 8, !tbaa !56
  call void @llvm.lifetime.end.p0(i64 4, ptr %23) #5
  call void @llvm.lifetime.end.p0(i64 4, ptr %22) #5
  call void @llvm.lifetime.end.p0(i64 8, ptr %21) #5
  call void @llvm.lifetime.end.p0(i64 8, ptr %20) #5
  call void @llvm.lifetime.end.p0(i64 16, ptr %19) #5
  call void @llvm.lifetime.end.p0(i64 8, ptr %18) #5
  br label %239

239:                                              ; preds = %166
  %240 = load i32, ptr %16, align 4, !tbaa !30
  %241 = add nsw i32 %240, 1
  store i32 %241, ptr %16, align 4, !tbaa !30
  %242 = load ptr, ptr %9, align 8, !tbaa !45
  %243 = getelementptr inbounds double, ptr %242, i64 2
  store ptr %243, ptr %9, align 8, !tbaa !45
  %244 = load ptr, ptr %15, align 8, !tbaa !45
  %245 = getelementptr inbounds double, ptr %244, i64 2
  store ptr %245, ptr %15, align 8, !tbaa !45
  br label %76, !llvm.loop !59

246:                                              ; preds = %76
  %247 = load ptr, ptr %14, align 8, !tbaa !33
  %248 = load ptr, ptr %5, align 8, !tbaa !33
  %249 = icmp ne ptr %247, %248
  br i1 %249, label %250, label %251

250:                                              ; preds = %246
  call void @av_frame_free(ptr noundef %5)
  br label %251

251:                                              ; preds = %250, %246
  %252 = load ptr, ptr %7, align 8, !tbaa !31
  %253 = load ptr, ptr %14, align 8, !tbaa !33
  %254 = call i32 @ff_filter_frame(ptr noundef %252, ptr noundef %253)
  store i32 %254, ptr %3, align 4
  store i32 1, ptr %17, align 4
  br label %255

255:                                              ; preds = %251, %66
  call void @llvm.lifetime.end.p0(i64 4, ptr %16) #5
  call void @llvm.lifetime.end.p0(i64 8, ptr %15) #5
  call void @llvm.lifetime.end.p0(i64 8, ptr %14) #5
  call void @llvm.lifetime.end.p0(i64 8, ptr %13) #5
  call void @llvm.lifetime.end.p0(i64 4, ptr %12) #5
  call void @llvm.lifetime.end.p0(i64 8, ptr %11) #5
  call void @llvm.lifetime.end.p0(i64 8, ptr %10) #5
  call void @llvm.lifetime.end.p0(i64 8, ptr %9) #5
  call void @llvm.lifetime.end.p0(i64 8, ptr %8) #5
  call void @llvm.lifetime.end.p0(i64 8, ptr %7) #5
  call void @llvm.lifetime.end.p0(i64 8, ptr %6) #5
  %256 = load i32, ptr %3, align 4
  ret i32 %256
}