; Function Attrs: nounwind uwtable
define internal i32 @filter_frame(ptr noundef readonly captures(none) %0, ptr noundef %1) #1 {
  %3 = alloca ptr, align 8
  store ptr %1, ptr %3, align 8, !tbaa !24
  %4 = getelementptr inbounds nuw i8, ptr %0, i64 16
  %5 = load ptr, ptr %4, align 8, !tbaa !26
  %6 = getelementptr inbounds nuw i8, ptr %5, i64 56
  %7 = load ptr, ptr %6, align 8, !tbaa !35
  %8 = load ptr, ptr %7, align 8, !tbaa !36
  %9 = getelementptr inbounds nuw i8, ptr %5, i64 72
  %10 = load ptr, ptr %9, align 8, !tbaa !4
  %11 = load ptr, ptr %1, align 8, !tbaa !38
  %12 = getelementptr inbounds nuw i8, ptr %10, i64 88
  %13 = load double, ptr %12, align 8, !tbaa !39
  %14 = getelementptr inbounds nuw i8, ptr %10, i64 96
  %15 = load double, ptr %14, align 8, !tbaa !40
  %16 = getelementptr inbounds nuw i8, ptr %10, i64 112
  %17 = load i64, ptr %16, align 8, !tbaa !20
  %18 = trunc i64 %17 to i32
  %19 = add i32 %18, -1
  %20 = getelementptr inbounds nuw i8, ptr %10, i64 104
  %21 = load ptr, ptr %20, align 8, !tbaa !41
  %22 = tail call i32 @av_frame_is_writable(ptr noundef nonnull %1) #5
  %.not = icmp eq i32 %22, 0
  br i1 %.not, label %23, label %30

23:                                               ; preds = %2
  %24 = getelementptr inbounds nuw i8, ptr %1, i64 112
  %25 = load i32, ptr %24, align 8, !tbaa !42
  %26 = tail call ptr @ff_get_audio_buffer(ptr noundef %8, i32 noundef %25) #5
  %.not69 = icmp eq ptr %26, null
  br i1 %.not69, label %27, label %28

27:                                               ; preds = %23
  call void @av_frame_free(ptr noundef nonnull %3) #5
  br label %113

28:                                               ; preds = %23
  %29 = tail call i32 @av_frame_copy_props(ptr noundef nonnull %26, ptr noundef nonnull %1) #5
  br label %30

30:                                               ; preds = %2, %28
  %.064 = phi ptr [ %26, %28 ], [ %1, %2 ]
  %31 = getelementptr inbounds nuw i8, ptr %1, i64 112
  %32 = load i32, ptr %31, align 8, !tbaa !42
  %33 = icmp sgt i32 %32, 0
  br i1 %33, label %.lr.ph, label %109

.lr.ph:                                           ; preds = %30
  %34 = load ptr, ptr %.064, align 8, !tbaa !38
  %35 = getelementptr inbounds nuw i8, ptr %10, i64 8
  %36 = load i32, ptr %35, align 8, !tbaa !47
  %37 = getelementptr inbounds nuw i8, ptr %10, i64 120
  %38 = load i64, ptr %16, align 8, !tbaa !20
  %39 = getelementptr inbounds nuw i8, ptr %10, i64 124
  %40 = trunc i64 %38 to i32
  %41 = getelementptr inbounds nuw i8, ptr %10, i64 128
  %42 = getelementptr inbounds nuw i8, ptr %10, i64 40
  %43 = load i32, ptr %42, align 8, !tbaa !48
  %.not71 = icmp eq i32 %43, 0
  %44 = getelementptr inbounds nuw i8, ptr %10, i64 48
  %45 = getelementptr inbounds nuw i8, ptr %10, i64 136
  %46 = getelementptr inbounds nuw i8, ptr %10, i64 144
  %47 = getelementptr inbounds nuw i8, ptr %10, i64 152
  %48 = getelementptr inbounds nuw i8, ptr %10, i64 160
  %.promoted = load i32, ptr %37, align 8, !tbaa !49
  %49 = load i32, ptr %39, align 4, !tbaa !50
  %50 = load i32, ptr %41, align 4, !tbaa !50
  br label %51

51:                                               ; preds = %.lr.ph, %70
  %52 = phi i32 [ %.promoted, %.lr.ph ], [ %105, %70 ]
  %.06375 = phi ptr [ %11, %.lr.ph ], [ %107, %70 ]
  %.06574 = phi ptr [ %34, %.lr.ph ], [ %108, %70 ]
  %.06673 = phi i32 [ 0, %.lr.ph ], [ %106, %70 ]
  %.06772 = phi double [ undef, %.lr.ph ], [ %.2, %70 ]
  switch i32 %36, label %70 [
    i32 0, label %53
    i32 1, label %55
    i32 2, label %58
    i32 3, label %64
  ]

53:                                               ; preds = %51
  %54 = load double, ptr %.06375, align 8, !tbaa !51
  br label %70

55:                                               ; preds = %51
  %56 = getelementptr inbounds nuw i8, ptr %.06375, i64 8
  %57 = load double, ptr %56, align 8, !tbaa !51
  br label %70

58:                                               ; preds = %51
  %59 = load double, ptr %.06375, align 8, !tbaa !51
  %60 = getelementptr inbounds nuw i8, ptr %.06375, i64 8
  %61 = load double, ptr %60, align 8, !tbaa !51
  %62 = fadd nsz double %59, %61
  %63 = fmul nsz double %62, 5.000000e-01
  br label %70

64:                                               ; preds = %51
  %65 = load double, ptr %.06375, align 8, !tbaa !51
  %66 = getelementptr inbounds nuw i8, ptr %.06375, i64 8
  %67 = load double, ptr %66, align 8, !tbaa !51
  %68 = fsub nsz double %65, %67
  %69 = fmul nsz double %68, 5.000000e-01
  br label %70

70:                                               ; preds = %64, %58, %55, %53, %51
  %.1 = phi nsz double [ %.06772, %51 ], [ %69, %64 ], [ %63, %58 ], [ %57, %55 ], [ %54, %53 ]
  %71 = fmul nsz double %13, %.1
  %72 = zext i32 %52 to i64
  %73 = getelementptr inbounds nuw double, ptr %21, i64 %72
  store double %71, ptr %73, align 8, !tbaa !51
  %74 = add i32 %52, %40
  %75 = sub i32 %74, %49
  %76 = and i32 %75, %19
  %77 = sub i32 %74, %50
  %78 = and i32 %77, %19
  %79 = fneg nsz double %71
  %.2 = select nsz i1 %.not71, double %71, double %79
  %80 = zext i32 %76 to i64
  %81 = getelementptr inbounds nuw double, ptr %21, i64 %80
  %82 = load double, ptr %81, align 8, !tbaa !51
  %83 = load double, ptr %44, align 8, !tbaa !52
  %84 = fmul nsz double %82, %83
  %85 = zext i32 %78 to i64
  %86 = getelementptr inbounds nuw double, ptr %21, i64 %85
  %87 = load double, ptr %86, align 8, !tbaa !51
  %88 = fmul nsz double %83, %87
  %89 = load double, ptr %45, align 8, !tbaa !51
  %90 = load double, ptr %46, align 8, !tbaa !51
  %91 = fneg nsz double %90
  %92 = fmul nsz double %88, %91
  %93 = tail call nsz double @llvm.fmuladd.f64(double %84, double %89, double %92)
  %94 = load double, ptr %48, align 8, !tbaa !51
  %95 = load double, ptr %47, align 8, !tbaa !51
  %96 = fneg nsz double %95
  %97 = fmul nsz double %84, %96
  %98 = tail call nsz double @llvm.fmuladd.f64(double %88, double %94, double %97)
  %99 = fadd nsz double %.2, %93
  %100 = fmul nsz double %15, %99
  store double %100, ptr %.06574, align 8, !tbaa !51
  %101 = fadd nsz double %.2, %98
  %102 = fmul nsz double %15, %101
  %103 = getelementptr inbounds nuw i8, ptr %.06574, i64 8
  store double %102, ptr %103, align 8, !tbaa !51
  %104 = add i32 %52, 1
  %105 = and i32 %104, %19
  %106 = add nuw nsw i32 %.06673, 1
  %107 = getelementptr inbounds nuw i8, ptr %.06375, i64 16
  %108 = getelementptr inbounds nuw i8, ptr %.06574, i64 16
  %exitcond.not = icmp eq i32 %106, %32
  br i1 %exitcond.not, label %._crit_edge, label %51, !llvm.loop !53

._crit_edge:                                      ; preds = %70
  store i32 %105, ptr %37, align 8, !tbaa !49
  br label %109

109:                                              ; preds = %._crit_edge, %30
  %.not70 = icmp eq ptr %.064, %1
  br i1 %.not70, label %111, label %110

110:                                              ; preds = %109
  call void @av_frame_free(ptr noundef nonnull %3) #5
  br label %111

111:                                              ; preds = %110, %109
  %112 = call i32 @ff_filter_frame(ptr noundef %8, ptr noundef nonnull %.064) #5
  br label %113

113:                                              ; preds = %111, %27
  %.0 = phi i32 [ %112, %111 ], [ -12, %27 ]
  ret i32 %.0
}